	.file	"storefor.c"
	.text
.Ltext0:
	.type	_ZL6rdtscpv, @function
_ZL6rdtscpv:
.LFB2:
	.file 1 "storefor.c"
	.loc 1 22 0
	.cfi_startproc
	pushq	%rbp
	.cfi_def_cfa_offset 16
	.cfi_offset 6, -16
	movq	%rsp, %rbp
	.cfi_def_cfa_register 6
	.loc 1 24 0
#APP
# 24 "storefor.c" 1
	rdtsc
# 0 "" 2
#NO_APP
	movl	%eax, -8(%rbp)
	movl	%edx, -4(%rbp)
	.loc 1 25 0
	movl	-4(%rbp), %eax
	salq	$32, %rax
	movq	%rax, %rdx
	movl	-8(%rbp), %eax
	orq	%rdx, %rax
	.loc 1 26 0
	popq	%rbp
	.cfi_def_cfa 7, 8
	ret
	.cfi_endproc
.LFE2:
	.size	_ZL6rdtscpv, .-_ZL6rdtscpv
	.globl	_Z9probetimePv
	.type	_Z9probetimePv, @function
_Z9probetimePv:
.LFB3:
	.loc 1 47 0
	.cfi_startproc
	pushq	%rbp
	.cfi_def_cfa_offset 16
	.cfi_offset 6, -16
	movq	%rsp, %rbp
	.cfi_def_cfa_register 6
	subq	$40, %rsp
	movq	%rdi, -40(%rbp)
	.loc 1 48 0
	cmpq	$0, -40(%rbp)
	jne	.L4
	.loc 1 49 0
	movl	$0, %eax
	jmp	.L5
.L4:
	.loc 1 50 0
	movl	$0, -20(%rbp)
	.loc 1 51 0
	movq	-40(%rbp), %rax
	movq	%rax, -16(%rbp)
	.loc 1 52 0
	call	_ZL6rdtscpv
	movq	%rax, -8(%rbp)
.L7:
	.loc 1 54 0
	movq	-16(%rbp), %rax
	movq	(%rax), %rax
	movq	%rax, -16(%rbp)
	.loc 1 55 0
	movq	-16(%rbp), %rax
	cmpq	-40(%rbp), %rax
	je	.L6
	.loc 1 53 0
	jmp	.L7
.L6:
	.loc 1 56 0
	call	_ZL6rdtscpv
	subq	-8(%rbp), %rax
.L5:
	.loc 1 57 0
	leave
	.cfi_def_cfa 7, 8
	ret
	.cfi_endproc
.LFE3:
	.size	_Z9probetimePv, .-_Z9probetimePv
	.globl	_Z4calci
	.type	_Z4calci, @function
_Z4calci:
.LFB4:
	.loc 1 61 0
	.cfi_startproc
	pushq	%rbp
	.cfi_def_cfa_offset 16
	.cfi_offset 6, -16
	movq	%rsp, %rbp
	.cfi_def_cfa_register 6
	movl	%edi, -4(%rbp)
	.loc 1 62 0
	movl	$0, %eax
	.loc 1 63 0
	popq	%rbp
	.cfi_def_cfa 7, 8
	ret
	.cfi_endproc
.LFE4:
	.size	_Z4calci, .-_Z4calci
	.section	.rodata
.LC0:
	.string	"\033[31m"
.LC1:
	.string	"%s"
.LC2:
	.string	"\033[0m"
.LC3:
	.string	"%u "
	.text
	.globl	_Z21measurement_funct_oldPhiS_
	.type	_Z21measurement_funct_oldPhiS_, @function
_Z21measurement_funct_oldPhiS_:
.LFB5:
	.loc 1 65 0
	.cfi_startproc
	pushq	%rbp
	.cfi_def_cfa_offset 16
	.cfi_offset 6, -16
	movq	%rsp, %rbp
	.cfi_def_cfa_register 6
	pushq	%rbx
	subq	$88, %rsp
	.cfi_offset 3, -24
	movq	%rdi, -72(%rbp)
	movl	%esi, -76(%rbp)
	movq	%rdx, -88(%rbp)
	.loc 1 65 0
	movq	%fs:40, %rax
	movq	%rax, -24(%rbp)
	xorl	%eax, %eax
	.loc 1 66 0
	movl	$8192, %eax
	movq	%rax, %rdi
	call	malloc
	movq	%rax, -32(%rbp)
.LBB2:
	.loc 1 67 0
	movl	-76(%rbp), %eax
	movl	%eax, -56(%rbp)
.L16:
	.loc 1 67 0 is_stmt 0 discriminator 1
	cmpl	$4095, -56(%rbp)
	jg	.L11
.LBB3:
	.loc 1 69 0 is_stmt 1
	movq	$0, -40(%rbp)
.LBB4:
	.loc 1 71 0
	movl	$0, -52(%rbp)
.L15:
	.loc 1 71 0 is_stmt 0 discriminator 1
	cmpl	$99, -52(%rbp)
	jg	.L12
.LBB5:
.LBB6:
	.loc 1 75 0 is_stmt 1
	movl	-76(%rbp), %eax
	addl	$1000, %eax
	movl	%eax, -48(%rbp)
.L14:
	.loc 1 75 0 is_stmt 0 discriminator 3
	cmpl	$0, -48(%rbp)
	js	.L13
	.loc 1 76 0 is_stmt 1 discriminator 2
	movl	-48(%rbp), %eax
	movl	%eax, %edx
	movq	-72(%rbp), %rax
	movb	%dl, (%rax)
	.loc 1 75 0 discriminator 2
	subl	$1, -48(%rbp)
	jmp	.L14
.L13:
.LBE6:
.LBB7:
	.loc 1 81 0 discriminator 2
	movq	-72(%rbp), %rax
	movq	%rax, %rbx
#APP
# 81 "storefor.c" 1
	rdtscp;mov %eax, %esi;mov (%rbx), %eax;rdtscp;mfence;sub %esi, %eax;mov %eax, %ecx;
# 0 "" 2
#NO_APP
	movl	%ecx, %eax
	movl	%eax, %ebx
	movl	%ebx, -60(%rbp)
.LBE7:
	.loc 1 82 0 discriminator 2
	movl	-60(%rbp), %eax
	movl	%eax, %eax
	addq	%rax, -40(%rbp)
.LBE5:
	.loc 1 71 0 discriminator 2
	addl	$1, -52(%rbp)
	jmp	.L15
.L12:
.LBE4:
	.loc 1 84 0 discriminator 2
	movl	-56(%rbp), %eax
	cltq
	leaq	(%rax,%rax), %rdx
	movq	-32(%rbp), %rax
	leaq	(%rdx,%rax), %rcx
	movq	-40(%rbp), %rax
	shrq	$2, %rax
	movabsq	$2951479051793528259, %rdx
	mulq	%rdx
	movq	%rdx, %rax
	shrq	$2, %rax
	movw	%ax, (%rcx)
.LBE3:
	.loc 1 67 0 discriminator 2
	addl	$1, -56(%rbp)
	jmp	.L16
.L11:
.LBE2:
.LBB8:
	.loc 1 90 0
	movl	-76(%rbp), %eax
	movl	%eax, -44(%rbp)
.L21:
	.loc 1 90 0 is_stmt 0 discriminator 1
	cmpl	$4095, -44(%rbp)
	jg	.L23
	.loc 1 91 0 is_stmt 1
	cmpl	$4094, -44(%rbp)
	jg	.L18
	.loc 1 91 0 is_stmt 0 discriminator 1
	movl	-44(%rbp), %eax
	cltq
	leaq	(%rax,%rax), %rdx
	movq	-32(%rbp), %rax
	addq	%rdx, %rax
	movzwl	(%rax), %eax
	cmpw	$150, %ax
	jbe	.L18
	.loc 1 91 0 discriminator 2
	movl	-44(%rbp), %eax
	cltq
	addq	$1, %rax
	leaq	(%rax,%rax), %rdx
	movq	-32(%rbp), %rax
	addq	%rdx, %rax
	movzwl	(%rax), %eax
	cmpw	$130, %ax
	jbe	.L18
	.loc 1 92 0 is_stmt 1
	movl	$.LC0, %esi
	movl	$.LC1, %edi
	movl	$0, %eax
	call	printf
.L18:
	.loc 1 95 0
	movl	-44(%rbp), %eax
	cltq
	leaq	(%rax,%rax), %rdx
	movq	-32(%rbp), %rax
	addq	%rdx, %rax
	movzwl	(%rax), %eax
	cmpw	$30, %ax
	jbe	.L19
	.loc 1 96 0
	movl	$.LC0, %esi
	movl	$.LC1, %edi
	movl	$0, %eax
	call	printf
	jmp	.L20
.L19:
	.loc 1 101 0
	movl	$.LC2, %esi
	movl	$.LC1, %edi
	movl	$0, %eax
	call	printf
.L20:
	.loc 1 102 0 discriminator 2
	movl	-44(%rbp), %eax
	cltq
	leaq	(%rax,%rax), %rdx
	movq	-32(%rbp), %rax
	addq	%rdx, %rax
	movzwl	(%rax), %eax
	movzwl	%ax, %eax
	movl	%eax, %esi
	movl	$.LC3, %edi
	movl	$0, %eax
	call	printf
	.loc 1 90 0 discriminator 2
	addl	$1, -44(%rbp)
	jmp	.L21
.L23:
.LBE8:
	.loc 1 104 0
	nop
	movq	-24(%rbp), %rax
	xorq	%fs:40, %rax
	je	.L22
	call	__stack_chk_fail
.L22:
	addq	$88, %rsp
	popq	%rbx
	popq	%rbp
	.cfi_def_cfa 7, 8
	ret
	.cfi_endproc
.LFE5:
	.size	_Z21measurement_funct_oldPhiS_, .-_Z21measurement_funct_oldPhiS_
	.section	.rodata
.LC4:
	.string	"target_add:%p\n"
	.text
	.globl	_Z18storefor_write_oldv
	.type	_Z18storefor_write_oldv, @function
_Z18storefor_write_oldv:
.LFB6:
	.loc 1 106 0
	.cfi_startproc
	pushq	%rbp
	.cfi_def_cfa_offset 16
	.cfi_offset 6, -16
	movq	%rsp, %rbp
	.cfi_def_cfa_register 6
	subq	$16, %rsp
	.loc 1 110 0
	movl	$16777216, %edi
	call	malloc
	movq	%rax, -8(%rbp)
	.loc 1 111 0
	movq	-8(%rbp), %rax
	movl	$16777216, %edx
	movl	$0, %esi
	movq	%rax, %rdi
	call	memset
	.loc 1 115 0
	movq	-8(%rbp), %rax
	movq	%rax, %rsi
	movl	$.LC4, %edi
	movl	$0, %eax
	call	printf
	.loc 1 116 0
	movq	-8(%rbp), %rdx
	movq	-8(%rbp), %rax
	movl	$64, %esi
	movq	%rax, %rdi
	call	_Z21measurement_funct_oldPhiS_
	.loc 1 120 0
	nop
	leave
	.cfi_def_cfa 7, 8
	ret
	.cfi_endproc
.LFE6:
	.size	_Z18storefor_write_oldv, .-_Z18storefor_write_oldv
	.globl	main
	.type	main, @function
main:
.LFB8:
	.loc 1 127 0
	.cfi_startproc
	pushq	%rbp
	.cfi_def_cfa_offset 16
	.cfi_offset 6, -16
	movq	%rsp, %rbp
	.cfi_def_cfa_register 6
	.loc 1 130 0
	call	_Z14storefor_writev
	.loc 1 133 0
	movq	stdin(%rip), %rax
	movq	%rax, %rdi
	call	fgetc
	.loc 1 134 0
	movl	$0, %eax
	popq	%rbp
	.cfi_def_cfa 7, 8
	ret
	.cfi_endproc
.LFE8:
	.size	main, .-main
.Letext0:
	.file 2 "/usr/lib/gcc/x86_64-linux-gnu/5/include/stddef.h"
	.file 3 "/usr/include/x86_64-linux-gnu/bits/types.h"
	.file 4 "/usr/include/libio.h"
	.file 5 "/usr/include/stdint.h"
	.file 6 "/usr/include/stdio.h"
	.section	.note.GNU-stack,"",@progbits
